target datalayout = "e-m:e-p270:32:32-p271:32:32-p272:64:64-i64:64-i128:128-f80:128-n8:16:32:64-S128"
target triple = "x86_64-pc-linux-gnu"

; Function Attrs: nounwind uwtable
define void @osage_cleanup(ptr noundef %0) #0 {
  %2 = alloca ptr, align 8
  %3 = alloca ptr, align 8
  %4 = alloca ptr, align 8
  store ptr %0, ptr %2, align 8, !tbaa !3
  call void @llvm.lifetime.start.p0(i64 8, ptr %3) #12
  %5 = load ptr, ptr %2, align 8, !tbaa !3
  %6 = call ptr @agfstnode(ptr noundef %5)
  store ptr %6, ptr %3, align 8, !tbaa !35
  br label %7

7:                                                ; preds = %26, %1
  %8 = load ptr, ptr %3, align 8, !tbaa !35
  %9 = icmp ne ptr %8, null
  br i1 %9, label %10, label %30

10:                                               ; preds = %7
  call void @llvm.lifetime.start.p0(i64 8, ptr %4) #12
  %11 = load ptr, ptr %2, align 8, !tbaa !3
  %12 = load ptr, ptr %3, align 8, !tbaa !35
  %13 = call ptr @agfstout(ptr noundef %11, ptr noundef %12)
  store ptr %13, ptr %4, align 8, !tbaa !53
  br label %14

14:                                               ; preds = %20, %10
  %15 = load ptr, ptr %4, align 8, !tbaa !53
  %16 = icmp ne ptr %15, null
  br i1 %16, label %18, label %17

17:                                               ; preds = %14
  call void @llvm.lifetime.end.p0(i64 8, ptr %4) #12
  br label %24

18:                                               ; preds = %14
  %19 = load ptr, ptr %4, align 8, !tbaa !53
  call void @gv_cleanup_edge(ptr noundef %19)
  br label %20

20:                                               ; preds = %18
  %21 = load ptr, ptr %2, align 8, !tbaa !3
  %22 = load ptr, ptr %4, align 8, !tbaa !53
  %23 = call ptr @agnxtout(ptr noundef %21, ptr noundef %22)
  store ptr %23, ptr %4, align 8, !tbaa !53
  br label %14, !llvm.loop !107

24:                                               ; preds = %17
  %25 = load ptr, ptr %3, align 8, !tbaa !35
  call void @gv_cleanup_node(ptr noundef %25)
  br label %26

26:                                               ; preds = %24
  %27 = load ptr, ptr %2, align 8, !tbaa !3
  %28 = load ptr, ptr %3, align 8, !tbaa !35
  %29 = call ptr @agnxtnode(ptr noundef %27, ptr noundef %28)
  store ptr %29, ptr %3, align 8, !tbaa !35
  br label %7, !llvm.loop !108

30:                                               ; preds = %7
  %31 = load ptr, ptr %2, align 8, !tbaa !3
  call void @cleanup_graphs(ptr noundef %31)
  call void @llvm.lifetime.end.p0(i64 8, ptr %3) #12
  ret void
}