; Function Attrs: nounwind uwtable
define void @osage_cleanup(ptr noundef %0) local_unnamed_addr #0 {
  %2 = tail call ptr @agfstnode(ptr noundef %0) #15
  %.not16 = icmp eq ptr %2, null
  br i1 %.not16, label %._crit_edge20, label %.lr.ph19

.lr.ph19:                                         ; preds = %1, %._crit_edge
  %.01217 = phi ptr [ %4, %._crit_edge ], [ %2, %1 ]
  %3 = tail call ptr @agfstout(ptr noundef %0, ptr noundef nonnull %.01217) #15
  %.not1314 = icmp eq ptr %3, null
  br i1 %.not1314, label %._crit_edge, label %.lr.ph

._crit_edge:                                      ; preds = %.lr.ph, %.lr.ph19
  tail call void @gv_cleanup_node(ptr noundef nonnull %.01217) #15
  %4 = tail call ptr @agnxtnode(ptr noundef %0, ptr noundef nonnull %.01217) #15
  %.not = icmp eq ptr %4, null
  br i1 %.not, label %._crit_edge20, label %.lr.ph19, !llvm.loop !100

.lr.ph:                                           ; preds = %.lr.ph19, %.lr.ph
  %.015 = phi ptr [ %5, %.lr.ph ], [ %3, %.lr.ph19 ]
  tail call void @gv_cleanup_edge(ptr noundef nonnull %.015) #15
  %5 = tail call ptr @agnxtout(ptr noundef %0, ptr noundef nonnull %.015) #15
  %.not13 = icmp eq ptr %5, null
  br i1 %.not13, label %._crit_edge, label %.lr.ph, !llvm.loop !101

._crit_edge20:                                    ; preds = %._crit_edge, %1
  tail call fastcc void @cleanup_graphs(ptr noundef %0)
  ret void
}